target datalayout = "e-m:e-p270:32:32-p271:32:32-p272:64:64-i64:64-i128:128-f80:128-n8:16:32:64-S128"
target triple = "x86_64-pc-linux-gnu"

%"class.std::__cxx11::basic_string" = type { %"struct.std::__cxx11::basic_string<char>::_Alloc_hider", i64, %union.anon }
%"struct.std::__cxx11::basic_string<char>::_Alloc_hider" = type { ptr }
%union.anon = type { i64, [8 x i8] }

@_ZN7testing17FLAGS_gtest_colorB5cxx11E = dso_local global %"class.std::__cxx11::basic_string" zeroinitializer, align 8
@.str.10 = private unnamed_addr constant [5 x i8] c"auto\00", align 1
@.str.128 = private unnamed_addr constant [5 x i8] c"TERM\00", align 1
@.str.129 = private unnamed_addr constant [6 x i8] c"xterm\00", align 1
@.str.130 = private unnamed_addr constant [12 x i8] c"xterm-color\00", align 1
@.str.131 = private unnamed_addr constant [15 x i8] c"xterm-256color\00", align 1
@.str.132 = private unnamed_addr constant [7 x i8] c"screen\00", align 1
@.str.133 = private unnamed_addr constant [16 x i8] c"screen-256color\00", align 1
@.str.134 = private unnamed_addr constant [5 x i8] c"tmux\00", align 1
@.str.135 = private unnamed_addr constant [14 x i8] c"tmux-256color\00", align 1
@.str.136 = private unnamed_addr constant [13 x i8] c"rxvt-unicode\00", align 1
@.str.137 = private unnamed_addr constant [22 x i8] c"rxvt-unicode-256color\00", align 1
@.str.138 = private unnamed_addr constant [6 x i8] c"linux\00", align 1
@.str.139 = private unnamed_addr constant [7 x i8] c"cygwin\00", align 1
@.str.140 = private unnamed_addr constant [4 x i8] c"yes\00", align 1
@.str.141 = private unnamed_addr constant [5 x i8] c"true\00", align 1
@.str.142 = private unnamed_addr constant [2 x i8] c"t\00", align 1
@.str.143 = private unnamed_addr constant [2 x i8] c"1\00", align 1

; Function Attrs: inlinehint mustprogress nounwind uwtable
define linkonce_odr hidden noundef i32 @_ZN7testing8internal5posix10StrCaseCmpEPKcS3_(ptr noundef %0, ptr noundef %1) #10 comdat {
  %3 = alloca ptr, align 8
  %4 = alloca ptr, align 8
  store ptr %0, ptr %3, align 8, !tbaa !8
  store ptr %1, ptr %4, align 8, !tbaa !8
  %5 = load ptr, ptr %3, align 8, !tbaa !8
  %6 = load ptr, ptr %4, align 8, !tbaa !8
  %7 = call i32 @strcasecmp(ptr noundef %5, ptr noundef %6) #24
  ret i32 %7
}

; Function Attrs: mustprogress nounwind uwtable
define available_externally noundef ptr @_ZNKSt7__cxx1112basic_stringIcSt11char_traitsIcESaIcEE7_M_dataEv(ptr noundef nonnull align 8 dereferenceable(32) %0) #6 align 2 {
  %2 = alloca ptr, align 8
  store ptr %0, ptr %2, align 8, !tbaa !15
  %3 = load ptr, ptr %2, align 8
  %4 = getelementptr inbounds nuw %"class.std::__cxx11::basic_string", ptr %3, i32 0, i32 0
  %5 = getelementptr inbounds nuw %"struct.std::__cxx11::basic_string<char>::_Alloc_hider", ptr %4, i32 0, i32 0
  %6 = load ptr, ptr %5, align 8, !tbaa !1241
  ret ptr %6
}

; Function Attrs: mustprogress nounwind uwtable
define dso_local noundef zeroext i1 @_ZN7testing8internal6String13CStringEqualsEPKcS3_(ptr noundef %0, ptr noundef %1) #6 align 2 {
  %3 = alloca i1, align 1
  %4 = alloca ptr, align 8
  %5 = alloca ptr, align 8
  store ptr %0, ptr %4, align 8, !tbaa !8
  store ptr %1, ptr %5, align 8, !tbaa !8
  %6 = load ptr, ptr %4, align 8, !tbaa !8
  %7 = icmp eq ptr %6, null
  br i1 %7, label %8, label %11

8:                                                ; preds = %2
  %9 = load ptr, ptr %5, align 8, !tbaa !8
  %10 = icmp eq ptr %9, null
  store i1 %10, ptr %3, align 1
  br label %20

11:                                               ; preds = %2
  %12 = load ptr, ptr %5, align 8, !tbaa !8
  %13 = icmp eq ptr %12, null
  br i1 %13, label %14, label %15

14:                                               ; preds = %11
  store i1 false, ptr %3, align 1
  br label %20

15:                                               ; preds = %11
  %16 = load ptr, ptr %4, align 8, !tbaa !8
  %17 = load ptr, ptr %5, align 8, !tbaa !8
  %18 = call i32 @strcmp(ptr noundef %16, ptr noundef %17) #24
  %19 = icmp eq i32 %18, 0
  store i1 %19, ptr %3, align 1
  br label %20

20:                                               ; preds = %15, %14, %8
  %21 = load i1, ptr %3, align 1
  ret i1 %21
}

; Function Attrs: inlinehint mustprogress nounwind uwtable
define linkonce_odr hidden noundef ptr @_ZN7testing8internal5posix6GetEnvEPKc(ptr noundef %0) #10 comdat {
  %2 = alloca ptr, align 8
  store ptr %0, ptr %2, align 8, !tbaa !8
  %3 = load ptr, ptr %2, align 8, !tbaa !8
  %4 = call ptr @getenv(ptr noundef %3) #3
  ret ptr %4
}

; Function Attrs: mustprogress uwtable
define dso_local noundef zeroext i1 @_ZN7testing8internal6String28CaseInsensitiveCStringEqualsEPKcS3_(ptr noundef %0, ptr noundef %1) #4 align 2 {
  %3 = alloca i1, align 1
  %4 = alloca ptr, align 8
  %5 = alloca ptr, align 8
  store ptr %0, ptr %4, align 8, !tbaa !8
  store ptr %1, ptr %5, align 8, !tbaa !8
  %6 = load ptr, ptr %4, align 8, !tbaa !8
  %7 = icmp eq ptr %6, null
  br i1 %7, label %8, label %11

8:                                                ; preds = %2
  %9 = load ptr, ptr %5, align 8, !tbaa !8
  %10 = icmp eq ptr %9, null
  store i1 %10, ptr %3, align 1
  br label %20

11:                                               ; preds = %2
  %12 = load ptr, ptr %5, align 8, !tbaa !8
  %13 = icmp eq ptr %12, null
  br i1 %13, label %14, label %15

14:                                               ; preds = %11
  store i1 false, ptr %3, align 1
  br label %20

15:                                               ; preds = %11
  %16 = load ptr, ptr %4, align 8, !tbaa !8
  %17 = load ptr, ptr %5, align 8, !tbaa !8
  %18 = call noundef i32 @_ZN7testing8internal5posix10StrCaseCmpEPKcS3_(ptr noundef %16, ptr noundef %17)
  %19 = icmp eq i32 %18, 0
  store i1 %19, ptr %3, align 1
  br label %20

20:                                               ; preds = %15, %14, %8
  %21 = load i1, ptr %3, align 1
  ret i1 %21
}

; Function Attrs: mustprogress nounwind uwtable
define available_externally noundef ptr @_ZNKSt7__cxx1112basic_stringIcSt11char_traitsIcESaIcEE5c_strEv(ptr noundef nonnull align 8 dereferenceable(32) %0) #6 align 2 {
  %2 = alloca ptr, align 8
  store ptr %0, ptr %2, align 8, !tbaa !15
  %3 = load ptr, ptr %2, align 8
  %4 = call noundef ptr @_ZNKSt7__cxx1112basic_stringIcSt11char_traitsIcESaIcEE7_M_dataEv(ptr noundef nonnull align 8 dereferenceable(32) %3)
  ret ptr %4
}

; Function Attrs: mustprogress uwtable
define dso_local noundef zeroext i1 @_ZN7testing8internal14ShouldUseColorEb(i1 noundef zeroext %0) #4 {
  %2 = alloca i1, align 1
  %3 = alloca i8, align 1
  %4 = alloca ptr, align 8
  %5 = alloca ptr, align 8
  %6 = alloca i8, align 1
  %7 = alloca i32, align 4
  %8 = zext i1 %0 to i8
  store i8 %8, ptr %3, align 1, !tbaa !4
  call void @llvm.lifetime.start.p0(i64 8, ptr %4) #3
  %9 = call noundef ptr @_ZNKSt7__cxx1112basic_stringIcSt11char_traitsIcESaIcEE5c_strEv(ptr noundef nonnull align 8 dereferenceable(32) @_ZN7testing17FLAGS_gtest_colorB5cxx11E) #3
  store ptr %9, ptr %4, align 8, !tbaa !8
  %10 = load ptr, ptr %4, align 8, !tbaa !8
  %11 = call noundef zeroext i1 @_ZN7testing8internal6String28CaseInsensitiveCStringEqualsEPKcS3_(ptr noundef %10, ptr noundef @.str.10)
  br i1 %11, label %12, label %56

12:                                               ; preds = %1
  call void @llvm.lifetime.start.p0(i64 8, ptr %5) #3
  %13 = call noundef ptr @_ZN7testing8internal5posix6GetEnvEPKc(ptr noundef @.str.128)
  store ptr %13, ptr %5, align 8, !tbaa !8
  call void @llvm.lifetime.start.p0(i64 1, ptr %6) #3
  %14 = load ptr, ptr %5, align 8, !tbaa !8
  %15 = call noundef zeroext i1 @_ZN7testing8internal6String13CStringEqualsEPKcS3_(ptr noundef %14, ptr noundef @.str.129)
  br i1 %15, label %46, label %16

16:                                               ; preds = %12
  %17 = load ptr, ptr %5, align 8, !tbaa !8
  %18 = call noundef zeroext i1 @_ZN7testing8internal6String13CStringEqualsEPKcS3_(ptr noundef %17, ptr noundef @.str.130)
  br i1 %18, label %46, label %19

19:                                               ; preds = %16
  %20 = load ptr, ptr %5, align 8, !tbaa !8
  %21 = call noundef zeroext i1 @_ZN7testing8internal6String13CStringEqualsEPKcS3_(ptr noundef %20, ptr noundef @.str.131)
  br i1 %21, label %46, label %22

22:                                               ; preds = %19
  %23 = load ptr, ptr %5, align 8, !tbaa !8
  %24 = call noundef zeroext i1 @_ZN7testing8internal6String13CStringEqualsEPKcS3_(ptr noundef %23, ptr noundef @.str.132)
  br i1 %24, label %46, label %25

25:                                               ; preds = %22
  %26 = load ptr, ptr %5, align 8, !tbaa !8
  %27 = call noundef zeroext i1 @_ZN7testing8internal6String13CStringEqualsEPKcS3_(ptr noundef %26, ptr noundef @.str.133)
  br i1 %27, label %46, label %28

28:                                               ; preds = %25
  %29 = load ptr, ptr %5, align 8, !tbaa !8
  %30 = call noundef zeroext i1 @_ZN7testing8internal6String13CStringEqualsEPKcS3_(ptr noundef %29, ptr noundef @.str.134)
  br i1 %30, label %46, label %31

31:                                               ; preds = %28
  %32 = load ptr, ptr %5, align 8, !tbaa !8
  %33 = call noundef zeroext i1 @_ZN7testing8internal6String13CStringEqualsEPKcS3_(ptr noundef %32, ptr noundef @.str.135)
  br i1 %33, label %46, label %34

34:                                               ; preds = %31
  %35 = load ptr, ptr %5, align 8, !tbaa !8
  %36 = call noundef zeroext i1 @_ZN7testing8internal6String13CStringEqualsEPKcS3_(ptr noundef %35, ptr noundef @.str.136)
  br i1 %36, label %46, label %37

37:                                               ; preds = %34
  %38 = load ptr, ptr %5, align 8, !tbaa !8
  %39 = call noundef zeroext i1 @_ZN7testing8internal6String13CStringEqualsEPKcS3_(ptr noundef %38, ptr noundef @.str.137)
  br i1 %39, label %46, label %40

40:                                               ; preds = %37
  %41 = load ptr, ptr %5, align 8, !tbaa !8
  %42 = call noundef zeroext i1 @_ZN7testing8internal6String13CStringEqualsEPKcS3_(ptr noundef %41, ptr noundef @.str.138)
  br i1 %42, label %46, label %43

43:                                               ; preds = %40
  %44 = load ptr, ptr %5, align 8, !tbaa !8
  %45 = call noundef zeroext i1 @_ZN7testing8internal6String13CStringEqualsEPKcS3_(ptr noundef %44, ptr noundef @.str.139)
  br label %46

46:                                               ; preds = %43, %40, %37, %34, %31, %28, %25, %22, %19, %16, %12
  %47 = phi i1 [ true, %40 ], [ true, %37 ], [ true, %34 ], [ true, %31 ], [ true, %28 ], [ true, %25 ], [ true, %22 ], [ true, %19 ], [ true, %16 ], [ true, %12 ], [ %45, %43 ]
  %48 = zext i1 %47 to i8
  store i8 %48, ptr %6, align 1, !tbaa !4
  %49 = load i8, ptr %3, align 1, !tbaa !4, !range !11, !noundef !12
  %50 = trunc i8 %49 to i1
  br i1 %50, label %51, label %54

51:                                               ; preds = %46
  %52 = load i8, ptr %6, align 1, !tbaa !4, !range !11, !noundef !12
  %53 = trunc i8 %52 to i1
  br label %54

54:                                               ; preds = %51, %46
  %55 = phi i1 [ false, %46 ], [ %53, %51 ]
  store i1 %55, ptr %2, align 1
  store i32 1, ptr %7, align 4
  call void @llvm.lifetime.end.p0(i64 1, ptr %6) #3
  call void @llvm.lifetime.end.p0(i64 8, ptr %5) #3
  br label %70

56:                                               ; preds = %1
  %57 = load ptr, ptr %4, align 8, !tbaa !8
  %58 = call noundef zeroext i1 @_ZN7testing8internal6String28CaseInsensitiveCStringEqualsEPKcS3_(ptr noundef %57, ptr noundef @.str.140)
  br i1 %58, label %68, label %59

59:                                               ; preds = %56
  %60 = load ptr, ptr %4, align 8, !tbaa !8
  %61 = call noundef zeroext i1 @_ZN7testing8internal6String28CaseInsensitiveCStringEqualsEPKcS3_(ptr noundef %60, ptr noundef @.str.141)
  br i1 %61, label %68, label %62

62:                                               ; preds = %59
  %63 = load ptr, ptr %4, align 8, !tbaa !8
  %64 = call noundef zeroext i1 @_ZN7testing8internal6String28CaseInsensitiveCStringEqualsEPKcS3_(ptr noundef %63, ptr noundef @.str.142)
  br i1 %64, label %68, label %65

65:                                               ; preds = %62
  %66 = load ptr, ptr %4, align 8, !tbaa !8
  %67 = call noundef zeroext i1 @_ZN7testing8internal6String13CStringEqualsEPKcS3_(ptr noundef %66, ptr noundef @.str.143)
  br label %68

68:                                               ; preds = %65, %62, %59, %56
  %69 = phi i1 [ true, %62 ], [ true, %59 ], [ true, %56 ], [ %67, %65 ]
  store i1 %69, ptr %2, align 1
  store i32 1, ptr %7, align 4
  br label %70

70:                                               ; preds = %68, %54
  call void @llvm.lifetime.end.p0(i64 8, ptr %4) #3
  %71 = load i1, ptr %2, align 1
  ret i1 %71
}