; Function Attrs: mustprogress nofree nounwind willreturn memory(read) uwtable
define dso_local noundef zeroext i1 @_ZN7testing8internal14ShouldUseColorEb(i1 noundef zeroext %0) local_unnamed_addr #22 {
  %2 = load ptr, ptr @_ZN7testing17FLAGS_gtest_colorB5cxx11E, align 8, !tbaa !4
  %3 = icmp eq ptr %2, null
  br i1 %3, label %_ZN7testing8internal6String13CStringEqualsEPKcS3_.exit46, label %_ZN7testing8internal6String28CaseInsensitiveCStringEqualsEPKcS3_.exit

_ZN7testing8internal6String28CaseInsensitiveCStringEqualsEPKcS3_.exit: ; preds = %1
  %4 = tail call noundef i32 @strcasecmp(ptr noundef nonnull readonly %2, ptr noundef nonnull @.str.10) #63
  %5 = icmp eq i32 %4, 0
  br i1 %5, label %6, label %_ZN7testing8internal6String28CaseInsensitiveCStringEqualsEPKcS3_.exit40

6:                                                ; preds = %_ZN7testing8internal6String28CaseInsensitiveCStringEqualsEPKcS3_.exit
  %7 = tail call noundef ptr @getenv(ptr noundef nonnull @.str.128) #58
  %8 = icmp eq ptr %7, null
  br i1 %8, label %_ZN7testing8internal6String13CStringEqualsEPKcS3_.exit38, label %_ZN7testing8internal6String13CStringEqualsEPKcS3_.exit

_ZN7testing8internal6String13CStringEqualsEPKcS3_.exit: ; preds = %6
  %9 = tail call i32 @strcmp(ptr noundef nonnull readonly dereferenceable(1) %7, ptr noundef nonnull dereferenceable(6) @.str.129) #63
  %10 = icmp eq i32 %9, 0
  br i1 %10, label %_ZN7testing8internal6String13CStringEqualsEPKcS3_.exit38, label %_ZN7testing8internal6String13CStringEqualsEPKcS3_.exit20

_ZN7testing8internal6String13CStringEqualsEPKcS3_.exit20: ; preds = %_ZN7testing8internal6String13CStringEqualsEPKcS3_.exit
  %11 = tail call i32 @strcmp(ptr noundef nonnull readonly dereferenceable(1) %7, ptr noundef nonnull dereferenceable(12) @.str.130) #63
  %12 = icmp eq i32 %11, 0
  br i1 %12, label %_ZN7testing8internal6String13CStringEqualsEPKcS3_.exit38, label %_ZN7testing8internal6String13CStringEqualsEPKcS3_.exit22

_ZN7testing8internal6String13CStringEqualsEPKcS3_.exit22: ; preds = %_ZN7testing8internal6String13CStringEqualsEPKcS3_.exit20
  %13 = tail call i32 @strcmp(ptr noundef nonnull readonly dereferenceable(1) %7, ptr noundef nonnull dereferenceable(15) @.str.131) #63
  %14 = icmp eq i32 %13, 0
  br i1 %14, label %_ZN7testing8internal6String13CStringEqualsEPKcS3_.exit38, label %_ZN7testing8internal6String13CStringEqualsEPKcS3_.exit24

_ZN7testing8internal6String13CStringEqualsEPKcS3_.exit24: ; preds = %_ZN7testing8internal6String13CStringEqualsEPKcS3_.exit22
  %15 = tail call i32 @strcmp(ptr noundef nonnull readonly dereferenceable(1) %7, ptr noundef nonnull dereferenceable(7) @.str.132) #63
  %16 = icmp eq i32 %15, 0
  br i1 %16, label %_ZN7testing8internal6String13CStringEqualsEPKcS3_.exit38, label %_ZN7testing8internal6String13CStringEqualsEPKcS3_.exit26

_ZN7testing8internal6String13CStringEqualsEPKcS3_.exit26: ; preds = %_ZN7testing8internal6String13CStringEqualsEPKcS3_.exit24
  %17 = tail call i32 @strcmp(ptr noundef nonnull readonly dereferenceable(1) %7, ptr noundef nonnull dereferenceable(16) @.str.133) #63
  %18 = icmp eq i32 %17, 0
  br i1 %18, label %_ZN7testing8internal6String13CStringEqualsEPKcS3_.exit38, label %_ZN7testing8internal6String13CStringEqualsEPKcS3_.exit28

_ZN7testing8internal6String13CStringEqualsEPKcS3_.exit28: ; preds = %_ZN7testing8internal6String13CStringEqualsEPKcS3_.exit26
  %19 = tail call i32 @strcmp(ptr noundef nonnull readonly dereferenceable(1) %7, ptr noundef nonnull dereferenceable(5) @.str.134) #63
  %20 = icmp eq i32 %19, 0
  br i1 %20, label %_ZN7testing8internal6String13CStringEqualsEPKcS3_.exit38, label %_ZN7testing8internal6String13CStringEqualsEPKcS3_.exit30

_ZN7testing8internal6String13CStringEqualsEPKcS3_.exit30: ; preds = %_ZN7testing8internal6String13CStringEqualsEPKcS3_.exit28
  %21 = tail call i32 @strcmp(ptr noundef nonnull readonly dereferenceable(1) %7, ptr noundef nonnull dereferenceable(14) @.str.135) #63
  %22 = icmp eq i32 %21, 0
  br i1 %22, label %_ZN7testing8internal6String13CStringEqualsEPKcS3_.exit38, label %_ZN7testing8internal6String13CStringEqualsEPKcS3_.exit32

_ZN7testing8internal6String13CStringEqualsEPKcS3_.exit32: ; preds = %_ZN7testing8internal6String13CStringEqualsEPKcS3_.exit30
  %23 = tail call i32 @strcmp(ptr noundef nonnull readonly dereferenceable(1) %7, ptr noundef nonnull dereferenceable(13) @.str.136) #63
  %24 = icmp eq i32 %23, 0
  br i1 %24, label %_ZN7testing8internal6String13CStringEqualsEPKcS3_.exit38, label %_ZN7testing8internal6String13CStringEqualsEPKcS3_.exit34

_ZN7testing8internal6String13CStringEqualsEPKcS3_.exit34: ; preds = %_ZN7testing8internal6String13CStringEqualsEPKcS3_.exit32
  %25 = tail call i32 @strcmp(ptr noundef nonnull readonly dereferenceable(1) %7, ptr noundef nonnull dereferenceable(22) @.str.137) #63
  %26 = icmp eq i32 %25, 0
  br i1 %26, label %_ZN7testing8internal6String13CStringEqualsEPKcS3_.exit38, label %_ZN7testing8internal6String13CStringEqualsEPKcS3_.exit36

_ZN7testing8internal6String13CStringEqualsEPKcS3_.exit36: ; preds = %_ZN7testing8internal6String13CStringEqualsEPKcS3_.exit34
  %27 = tail call i32 @strcmp(ptr noundef nonnull readonly dereferenceable(1) %7, ptr noundef nonnull dereferenceable(6) @.str.138) #63
  %28 = icmp eq i32 %27, 0
  br i1 %28, label %_ZN7testing8internal6String13CStringEqualsEPKcS3_.exit38, label %29

29:                                               ; preds = %_ZN7testing8internal6String13CStringEqualsEPKcS3_.exit36
  %30 = tail call i32 @strcmp(ptr noundef nonnull readonly dereferenceable(1) %7, ptr noundef nonnull dereferenceable(7) @.str.139) #63
  %31 = icmp eq i32 %30, 0
  br label %_ZN7testing8internal6String13CStringEqualsEPKcS3_.exit38

_ZN7testing8internal6String13CStringEqualsEPKcS3_.exit38: ; preds = %6, %29, %_ZN7testing8internal6String13CStringEqualsEPKcS3_.exit36, %_ZN7testing8internal6String13CStringEqualsEPKcS3_.exit34, %_ZN7testing8internal6String13CStringEqualsEPKcS3_.exit32, %_ZN7testing8internal6String13CStringEqualsEPKcS3_.exit30, %_ZN7testing8internal6String13CStringEqualsEPKcS3_.exit28, %_ZN7testing8internal6String13CStringEqualsEPKcS3_.exit26, %_ZN7testing8internal6String13CStringEqualsEPKcS3_.exit24, %_ZN7testing8internal6String13CStringEqualsEPKcS3_.exit22, %_ZN7testing8internal6String13CStringEqualsEPKcS3_.exit20, %_ZN7testing8internal6String13CStringEqualsEPKcS3_.exit
  %32 = phi i1 [ true, %_ZN7testing8internal6String13CStringEqualsEPKcS3_.exit36 ], [ true, %_ZN7testing8internal6String13CStringEqualsEPKcS3_.exit34 ], [ true, %_ZN7testing8internal6String13CStringEqualsEPKcS3_.exit32 ], [ true, %_ZN7testing8internal6String13CStringEqualsEPKcS3_.exit30 ], [ true, %_ZN7testing8internal6String13CStringEqualsEPKcS3_.exit28 ], [ true, %_ZN7testing8internal6String13CStringEqualsEPKcS3_.exit26 ], [ true, %_ZN7testing8internal6String13CStringEqualsEPKcS3_.exit24 ], [ true, %_ZN7testing8internal6String13CStringEqualsEPKcS3_.exit22 ], [ true, %_ZN7testing8internal6String13CStringEqualsEPKcS3_.exit20 ], [ true, %_ZN7testing8internal6String13CStringEqualsEPKcS3_.exit ], [ %31, %29 ], [ false, %6 ]
  %33 = and i1 %0, %32
  br label %_ZN7testing8internal6String13CStringEqualsEPKcS3_.exit46

_ZN7testing8internal6String28CaseInsensitiveCStringEqualsEPKcS3_.exit40: ; preds = %_ZN7testing8internal6String28CaseInsensitiveCStringEqualsEPKcS3_.exit
  %34 = tail call noundef i32 @strcasecmp(ptr noundef nonnull readonly %2, ptr noundef nonnull @.str.140) #63
  %35 = icmp eq i32 %34, 0
  br i1 %35, label %_ZN7testing8internal6String13CStringEqualsEPKcS3_.exit46, label %_ZN7testing8internal6String28CaseInsensitiveCStringEqualsEPKcS3_.exit42

_ZN7testing8internal6String28CaseInsensitiveCStringEqualsEPKcS3_.exit42: ; preds = %_ZN7testing8internal6String28CaseInsensitiveCStringEqualsEPKcS3_.exit40
  %36 = tail call noundef i32 @strcasecmp(ptr noundef nonnull readonly %2, ptr noundef nonnull @.str.141) #63
  %37 = icmp eq i32 %36, 0
  br i1 %37, label %_ZN7testing8internal6String13CStringEqualsEPKcS3_.exit46, label %_ZN7testing8internal6String28CaseInsensitiveCStringEqualsEPKcS3_.exit44

_ZN7testing8internal6String28CaseInsensitiveCStringEqualsEPKcS3_.exit44: ; preds = %_ZN7testing8internal6String28CaseInsensitiveCStringEqualsEPKcS3_.exit42
  %38 = tail call noundef i32 @strcasecmp(ptr noundef nonnull readonly %2, ptr noundef nonnull @.str.142) #63
  %39 = icmp eq i32 %38, 0
  br i1 %39, label %_ZN7testing8internal6String13CStringEqualsEPKcS3_.exit46, label %sub_0

sub_0:                                            ; preds = %_ZN7testing8internal6String28CaseInsensitiveCStringEqualsEPKcS3_.exit44
  %40 = load i8, ptr %2, align 1
  %.not = icmp eq i8 %40, 49
  br i1 %.not, label %sub_1, label %_ZN7testing8internal6String13CStringEqualsEPKcS3_.exit46

sub_1:                                            ; preds = %sub_0
  %41 = getelementptr inbounds nuw i8, ptr %2, i64 1
  %42 = load i8, ptr %41, align 1
  %43 = icmp eq i8 %42, 0
  br label %_ZN7testing8internal6String13CStringEqualsEPKcS3_.exit46

_ZN7testing8internal6String13CStringEqualsEPKcS3_.exit46: ; preds = %sub_1, %sub_0, %1, %_ZN7testing8internal6String28CaseInsensitiveCStringEqualsEPKcS3_.exit40, %_ZN7testing8internal6String28CaseInsensitiveCStringEqualsEPKcS3_.exit42, %_ZN7testing8internal6String28CaseInsensitiveCStringEqualsEPKcS3_.exit44, %_ZN7testing8internal6String13CStringEqualsEPKcS3_.exit38
  %.0 = phi i1 [ %33, %_ZN7testing8internal6String13CStringEqualsEPKcS3_.exit38 ], [ true, %_ZN7testing8internal6String28CaseInsensitiveCStringEqualsEPKcS3_.exit44 ], [ true, %_ZN7testing8internal6String28CaseInsensitiveCStringEqualsEPKcS3_.exit42 ], [ true, %_ZN7testing8internal6String28CaseInsensitiveCStringEqualsEPKcS3_.exit40 ], [ false, %1 ], [ false, %sub_0 ], [ %43, %sub_1 ]
  ret i1 %.0
}